target datalayout = "e-m:e-p270:32:32-p271:32:32-p272:64:64-i64:64-i128:128-f80:128-n8:16:32:64-S128"
target triple = "x86_64-pc-linux-gnu"

%struct.Port = type { i32, i8, i32, %struct.SockAddr, %struct.SockAddr, ptr, ptr, i32, i32, ptr, ptr, ptr, ptr, ptr, ptr, ptr, i32, i32, i32, i32, i32, i32, i32, i32, [32 x i8], [32 x i8], i8, ptr, i8, ptr, ptr, i8, i8, i8, ptr, ptr, ptr, i64, i64 }
%struct.SockAddr = type { %struct.sockaddr_storage, i32 }
%struct.sockaddr_storage = type { i16, [118 x i8], i64 }

@.str.3 = private unnamed_addr constant [11 x i8] c"postgres.c\00", align 1
@.str.46 = private unnamed_addr constant [19 x i8] c"log_disconnections\00", align 1
@.str.127 = private unnamed_addr constant [1 x i8] zeroinitializer, align 1
@MyProcPort = external global ptr, align 8
@MyStartTimestamp = external global i64, align 8
@.str.163 = private unnamed_addr constant [79 x i8] c"disconnection: session time: %d:%02d:%02d.%03d user=%s database=%s host=%s%s%s\00", align 1
@.str.164 = private unnamed_addr constant [7 x i8] c" port=\00", align 1

; Function Attrs: nounwind uwtable
define internal void @log_disconnections(i32 noundef %0, i64 noundef %1) #0 {
  %3 = alloca i32, align 4
  %4 = alloca i64, align 8
  %5 = alloca ptr, align 8
  %6 = alloca i64, align 8
  %7 = alloca i32, align 4
  %8 = alloca i32, align 4
  %9 = alloca i32, align 4
  %10 = alloca i32, align 4
  %11 = alloca i32, align 4
  store i32 %0, ptr %3, align 4
  store i64 %1, ptr %4, align 8
  call void @llvm.lifetime.start.p0(i64 8, ptr %5) #16
  %12 = load ptr, ptr @MyProcPort, align 8
  store ptr %12, ptr %5, align 8
  call void @llvm.lifetime.start.p0(i64 8, ptr %6) #16
  call void @llvm.lifetime.start.p0(i64 4, ptr %7) #16
  call void @llvm.lifetime.start.p0(i64 4, ptr %8) #16
  call void @llvm.lifetime.start.p0(i64 4, ptr %9) #16
  call void @llvm.lifetime.start.p0(i64 4, ptr %10) #16
  call void @llvm.lifetime.start.p0(i64 4, ptr %11) #16
  %13 = load i64, ptr @MyStartTimestamp, align 8
  %14 = call i64 @GetCurrentTimestamp()
  call void @TimestampDifference(i64 noundef %13, i64 noundef %14, ptr noundef %6, ptr noundef %7)
  %15 = load i32, ptr %7, align 4
  %16 = sdiv i32 %15, 1000
  store i32 %16, ptr %8, align 4
  %17 = load i64, ptr %6, align 8
  %18 = sdiv i64 %17, 3600
  %19 = trunc i64 %18 to i32
  store i32 %19, ptr %9, align 4
  %20 = load i64, ptr %6, align 8
  %21 = srem i64 %20, 3600
  store i64 %21, ptr %6, align 8
  %22 = load i64, ptr %6, align 8
  %23 = sdiv i64 %22, 60
  %24 = trunc i64 %23 to i32
  store i32 %24, ptr %10, align 4
  %25 = load i64, ptr %6, align 8
  %26 = srem i64 %25, 60
  %27 = trunc i64 %26 to i32
  store i32 %27, ptr %11, align 4
  br label %28

28:                                               ; preds = %2
  br i1 false, label %29, label %31

29:                                               ; preds = %28
  %30 = call zeroext i1 @errstart_cold(i32 noundef 15, ptr noundef null) #18
  br i1 %30, label %33, label %59

31:                                               ; preds = %28
  %32 = call zeroext i1 @errstart(i32 noundef 15, ptr noundef null)
  br i1 %32, label %33, label %59

33:                                               ; preds = %31, %29
  %34 = load i32, ptr %9, align 4
  %35 = load i32, ptr %10, align 4
  %36 = load i32, ptr %11, align 4
  %37 = load i32, ptr %8, align 4
  %38 = load ptr, ptr %5, align 8
  %39 = getelementptr inbounds nuw %struct.Port, ptr %38, i32 0, i32 11
  %40 = load ptr, ptr %39, align 8
  %41 = load ptr, ptr %5, align 8
  %42 = getelementptr inbounds nuw %struct.Port, ptr %41, i32 0, i32 10
  %43 = load ptr, ptr %42, align 8
  %44 = load ptr, ptr %5, align 8
  %45 = getelementptr inbounds nuw %struct.Port, ptr %44, i32 0, i32 5
  %46 = load ptr, ptr %45, align 8
  %47 = load ptr, ptr %5, align 8
  %48 = getelementptr inbounds nuw %struct.Port, ptr %47, i32 0, i32 9
  %49 = load ptr, ptr %48, align 8
  %50 = getelementptr inbounds i8, ptr %49, i64 0
  %51 = load i8, ptr %50, align 1
  %52 = sext i8 %51 to i32
  %53 = icmp ne i32 %52, 0
  %54 = select i1 %53, ptr @.str.164, ptr @.str.127
  %55 = load ptr, ptr %5, align 8
  %56 = getelementptr inbounds nuw %struct.Port, ptr %55, i32 0, i32 9
  %57 = load ptr, ptr %56, align 8
  %58 = call i32 (ptr, ...) @errmsg(ptr noundef @.str.163, i32 noundef %34, i32 noundef %35, i32 noundef %36, i32 noundef %37, ptr noundef %40, ptr noundef %43, ptr noundef %46, ptr noundef %54, ptr noundef %57)
  call void @errfinish(ptr noundef @.str.3, i32 noundef 5118, ptr noundef @.str.46)
  br label %59

59:                                               ; preds = %33, %31, %29
  br label %60

60:                                               ; preds = %59
  br label %61

61:                                               ; preds = %60
  call void @llvm.lifetime.end.p0(i64 4, ptr %11) #16
  call void @llvm.lifetime.end.p0(i64 4, ptr %10) #16
  call void @llvm.lifetime.end.p0(i64 4, ptr %9) #16
  call void @llvm.lifetime.end.p0(i64 4, ptr %8) #16
  call void @llvm.lifetime.end.p0(i64 4, ptr %7) #16
  call void @llvm.lifetime.end.p0(i64 8, ptr %6) #16
  call void @llvm.lifetime.end.p0(i64 8, ptr %5) #16
  ret void
}