; Function Attrs: nounwind uwtable
define internal void @log_disconnections(i32 %0, i64 %1) #0 {
  %3 = alloca i64, align 8
  %4 = alloca i32, align 4
  %5 = load ptr, ptr @MyProcPort, align 8
  call void @llvm.lifetime.start.p0(i64 8, ptr nonnull %3) #22
  call void @llvm.lifetime.start.p0(i64 4, ptr nonnull %4) #22
  %6 = load i64, ptr @MyStartTimestamp, align 8
  %7 = tail call i64 @GetCurrentTimestamp() #22
  call void @TimestampDifference(i64 noundef %6, i64 noundef %7, ptr noundef nonnull %3, ptr noundef nonnull %4) #22
  %8 = load i32, ptr %4, align 4
  %9 = load i64, ptr %3, align 8
  %10 = srem i64 %9, 3600
  %11 = sdiv i64 %9, 3600
  store i64 %10, ptr %3, align 8
  %12 = call zeroext i1 @errstart(i32 noundef 15, ptr noundef null) #22
  br i1 %12, label %13, label %31

13:                                               ; preds = %2
  %.lhs.trunc = trunc nsw i64 %10 to i16
  %14 = srem i16 %.lhs.trunc, 60
  %15 = sext i16 %14 to i32
  %16 = sdiv i16 %.lhs.trunc, 60
  %17 = sext i16 %16 to i32
  %18 = trunc i64 %11 to i32
  %19 = sdiv i32 %8, 1000
  %20 = getelementptr inbounds nuw i8, ptr %5, i64 328
  %21 = load ptr, ptr %20, align 8
  %22 = getelementptr inbounds nuw i8, ptr %5, i64 320
  %23 = load ptr, ptr %22, align 8
  %24 = getelementptr inbounds nuw i8, ptr %5, i64 288
  %25 = load ptr, ptr %24, align 8
  %26 = getelementptr inbounds nuw i8, ptr %5, i64 312
  %27 = load ptr, ptr %26, align 8
  %28 = load i8, ptr %27, align 1
  %.not = icmp eq i8 %28, 0
  %29 = select i1 %.not, ptr @.str.127, ptr @.str.164
  %30 = call i32 (ptr, ...) @errmsg(ptr noundef nonnull @.str.163, i32 noundef %18, i32 noundef %17, i32 noundef %15, i32 noundef %19, ptr noundef %21, ptr noundef %23, ptr noundef %25, ptr noundef nonnull %29, ptr noundef nonnull %27) #22
  call void @errfinish(ptr noundef nonnull @.str.3, i32 noundef 5118, ptr noundef nonnull @.str.46) #22
  br label %31

31:                                               ; preds = %13, %2
  call void @llvm.lifetime.end.p0(i64 4, ptr nonnull %4) #22
  call void @llvm.lifetime.end.p0(i64 8, ptr nonnull %3) #22
  ret void
}